target datalayout = "e-m:e-p270:32:32-p271:32:32-p272:64:64-i64:64-i128:128-f80:128-n8:16:32:64-S128"
target triple = "x86_64-pc-linux-gnu"

%struct.cbs_st = type { ptr, i64 }

; Function Attrs: nounwind uwtable
define internal i32 @ext_ec_point_parse_serverhello(ptr noundef %0, ptr noundef %1, ptr noundef %2) #0 {
  %4 = alloca i32, align 4
  %5 = alloca ptr, align 8
  %6 = alloca ptr, align 8
  %7 = alloca ptr, align 8
  %8 = alloca %struct.cbs_st, align 8
  %9 = alloca i32, align 4
  store ptr %0, ptr %5, align 8, !tbaa !69
  store ptr %1, ptr %6, align 8, !tbaa !55
  store ptr %2, ptr %7, align 8, !tbaa !52
  %10 = load ptr, ptr %7, align 8, !tbaa !52
  %11 = icmp eq ptr %10, null
  br i1 %11, label %12, label %13

12:                                               ; preds = %3
  store i32 1, ptr %4, align 4
  br label %31

13:                                               ; preds = %3
  call void @llvm.lifetime.start.p0(i64 16, ptr %8) #8
  %14 = load ptr, ptr %7, align 8, !tbaa !52
  %15 = call i32 @CBS_get_u8_length_prefixed(ptr noundef %14, ptr noundef %8)
  %16 = icmp ne i32 %15, 0
  br i1 %16, label %17, label %21

17:                                               ; preds = %13
  %18 = load ptr, ptr %7, align 8, !tbaa !52
  %19 = call i64 @CBS_len(ptr noundef %18)
  %20 = icmp ne i64 %19, 0
  br i1 %20, label %21, label %22

21:                                               ; preds = %17, %13
  store i32 0, ptr %4, align 4
  store i32 1, ptr %9, align 4
  br label %30

22:                                               ; preds = %17
  %23 = call ptr @CBS_data(ptr noundef %8)
  %24 = call i64 @CBS_len(ptr noundef %8)
  %25 = call ptr @memchr(ptr noundef %23, i32 noundef 0, i64 noundef %24) #10
  %26 = icmp eq ptr %25, null
  br i1 %26, label %27, label %29

27:                                               ; preds = %22
  %28 = load ptr, ptr %6, align 8, !tbaa !55
  store i8 47, ptr %28, align 1, !tbaa !103
  store i32 0, ptr %4, align 4
  store i32 1, ptr %9, align 4
  br label %30

29:                                               ; preds = %22
  store i32 1, ptr %4, align 4
  store i32 1, ptr %9, align 4
  br label %30

30:                                               ; preds = %29, %27, %21
  call void @llvm.lifetime.end.p0(i64 16, ptr %8) #8
  br label %31

31:                                               ; preds = %30, %12
  %32 = load i32, ptr %4, align 4
  ret i32 %32
}

; Function Attrs: nounwind uwtable
define internal i32 @ext_ec_point_parse_clienthello(ptr noundef %0, ptr noundef %1, ptr noundef %2) #0 {
  %4 = alloca ptr, align 8
  %5 = alloca ptr, align 8
  %6 = alloca ptr, align 8
  store ptr %0, ptr %4, align 8, !tbaa !69
  store ptr %1, ptr %5, align 8, !tbaa !55
  store ptr %2, ptr %6, align 8, !tbaa !52
  %7 = load ptr, ptr %4, align 8, !tbaa !69
  %8 = load ptr, ptr %5, align 8, !tbaa !55
  %9 = load ptr, ptr %6, align 8, !tbaa !52
  %10 = call i32 @ext_ec_point_parse_serverhello(ptr noundef %7, ptr noundef %8, ptr noundef %9)
  ret i32 %10
}