; Function Attrs: nounwind uwtable
define internal range(i32 0, 2) i32 @ext_ec_point_parse_clienthello(ptr readnone captures(none) %0, ptr noundef writeonly captures(none) %1, ptr noundef %2) #0 {
  %4 = alloca %struct.cbs_st, align 8
  %5 = icmp eq ptr %2, null
  br i1 %5, label %ext_ec_point_parse_serverhello.exit, label %6

6:                                                ; preds = %3
  call void @llvm.lifetime.start.p0(i64 16, ptr nonnull %4) #21
  %7 = call i32 @CBS_get_u8_length_prefixed(ptr noundef nonnull %2, ptr noundef nonnull %4) #21
  %.not.i = icmp eq i32 %7, 0
  br i1 %.not.i, label %16, label %8

8:                                                ; preds = %6
  %9 = call i64 @CBS_len(ptr noundef nonnull %2) #21
  %.not5.i = icmp eq i64 %9, 0
  br i1 %.not5.i, label %10, label %16

10:                                               ; preds = %8
  %11 = call ptr @CBS_data(ptr noundef nonnull %4) #21
  %12 = call i64 @CBS_len(ptr noundef nonnull %4) #21
  %13 = call ptr @memchr(ptr noundef %11, i32 noundef 0, i64 noundef %12) #23
  %14 = icmp eq ptr %13, null
  br i1 %14, label %15, label %16

15:                                               ; preds = %10
  store i8 47, ptr %1, align 1, !tbaa !90
  br label %16

16:                                               ; preds = %15, %10, %8, %6
  %.1.i = phi i32 [ 0, %15 ], [ 0, %8 ], [ 0, %6 ], [ 1, %10 ]
  call void @llvm.lifetime.end.p0(i64 16, ptr nonnull %4) #21
  br label %ext_ec_point_parse_serverhello.exit

ext_ec_point_parse_serverhello.exit:              ; preds = %3, %16
  %.0.i = phi i32 [ %.1.i, %16 ], [ 1, %3 ]
  ret i32 %.0.i
}